target datalayout = "e-m:e-p270:32:32-p271:32:32-p272:64:64-i64:64-i128:128-f80:128-n8:16:32:64-S128"
target triple = "x86_64-pc-linux-gnu"

%struct.CMS_EncryptedContentInfo_st = type { ptr, ptr, ptr, ptr, ptr, i64, ptr, i64, i32, i32 }

@.str = private unnamed_addr constant [34 x i8] c"../openssl/crypto/cms/cms_smime.c\00", align 1
@__func__.CMS_decrypt = private unnamed_addr constant [12 x i8] c"CMS_decrypt\00", align 1
@__func__.check_content = private unnamed_addr constant [14 x i8] c"check_content\00", align 1

; Function Attrs: nounwind uwtable
define internal void @do_free_upto(ptr noundef %0, ptr noundef %1) #0 {
  %3 = alloca ptr, align 8
  %4 = alloca ptr, align 8
  %5 = alloca ptr, align 8
  store ptr %0, ptr %3, align 8, !tbaa !8
  store ptr %1, ptr %4, align 8, !tbaa !8
  %6 = load ptr, ptr %4, align 8, !tbaa !8
  %7 = icmp ne ptr %6, null
  br i1 %7, label %8, label %25

8:                                                ; preds = %2
  call void @llvm.lifetime.start.p0(i64 8, ptr %5) #4
  br label %9

9:                                                ; preds = %22, %8
  %10 = load ptr, ptr %3, align 8, !tbaa !8
  %11 = call ptr @BIO_pop(ptr noundef %10)
  store ptr %11, ptr %5, align 8, !tbaa !8
  %12 = load ptr, ptr %3, align 8, !tbaa !8
  %13 = call i32 @BIO_free(ptr noundef %12)
  %14 = load ptr, ptr %5, align 8, !tbaa !8
  store ptr %14, ptr %3, align 8, !tbaa !8
  br label %15

15:                                               ; preds = %9
  %16 = load ptr, ptr %3, align 8, !tbaa !8
  %17 = icmp ne ptr %16, null
  br i1 %17, label %18, label %22

18:                                               ; preds = %15
  %19 = load ptr, ptr %3, align 8, !tbaa !8
  %20 = load ptr, ptr %4, align 8, !tbaa !8
  %21 = icmp ne ptr %19, %20
  br label %22

22:                                               ; preds = %18, %15
  %23 = phi i1 [ false, %15 ], [ %21, %18 ]
  br i1 %23, label %9, label %24, !llvm.loop !20

24:                                               ; preds = %22
  call void @llvm.lifetime.end.p0(i64 8, ptr %5) #4
  br label %27

25:                                               ; preds = %2
  %26 = load ptr, ptr %3, align 8, !tbaa !8
  call void @BIO_free_all(ptr noundef %26)
  br label %27

27:                                               ; preds = %25, %24
  ret void
}

; Function Attrs: nounwind uwtable
define i32 @CMS_decrypt_set1_pkey(ptr noundef %0, ptr noundef %1, ptr noundef %2) #0 {
  %4 = alloca ptr, align 8
  %5 = alloca ptr, align 8
  %6 = alloca ptr, align 8
  store ptr %0, ptr %4, align 8, !tbaa !3
  store ptr %1, ptr %5, align 8, !tbaa !54
  store ptr %2, ptr %6, align 8, !tbaa !44
  %7 = load ptr, ptr %4, align 8, !tbaa !3
  %8 = load ptr, ptr %5, align 8, !tbaa !54
  %9 = load ptr, ptr %6, align 8, !tbaa !44
  %10 = call i32 @CMS_decrypt_set1_pkey_and_peer(ptr noundef %7, ptr noundef %8, ptr noundef %9, ptr noundef null)
  ret i32 %10
}

; Function Attrs: nounwind uwtable
define internal i32 @check_content(ptr noundef %0) #0 {
  %2 = alloca i32, align 4
  %3 = alloca ptr, align 8
  %4 = alloca ptr, align 8
  %5 = alloca i32, align 4
  store ptr %0, ptr %3, align 8, !tbaa !3
  call void @llvm.lifetime.start.p0(i64 8, ptr %4) #4
  %6 = load ptr, ptr %3, align 8, !tbaa !3
  %7 = call ptr @CMS_get0_content(ptr noundef %6)
  store ptr %7, ptr %4, align 8, !tbaa !16
  %8 = load ptr, ptr %4, align 8, !tbaa !16
  %9 = icmp eq ptr %8, null
  br i1 %9, label %14, label %10

10:                                               ; preds = %1
  %11 = load ptr, ptr %4, align 8, !tbaa !16
  %12 = load ptr, ptr %11, align 8, !tbaa !18
  %13 = icmp eq ptr %12, null
  br i1 %13, label %14, label %15

14:                                               ; preds = %10, %1
  call void @ERR_new()
  call void @ERR_set_debug(ptr noundef @.str, i32 noundef 84, ptr noundef @__func__.check_content)
  call void (i32, i32, ptr, ...) @ERR_set_error(i32 noundef 46, i32 noundef 127, ptr noundef null)
  store i32 0, ptr %2, align 4
  store i32 1, ptr %5, align 4
  br label %16

15:                                               ; preds = %10
  store i32 1, ptr %2, align 4
  store i32 1, ptr %5, align 4
  br label %16

16:                                               ; preds = %15, %14
  call void @llvm.lifetime.end.p0(i64 8, ptr %4) #4
  %17 = load i32, ptr %2, align 4
  ret i32 %17
}

; Function Attrs: nounwind uwtable
define i32 @CMS_decrypt(ptr noundef %0, ptr noundef %1, ptr noundef %2, ptr noundef %3, ptr noundef %4, i32 noundef %5) #0 {
  %7 = alloca i32, align 4
  %8 = alloca ptr, align 8
  %9 = alloca ptr, align 8
  %10 = alloca ptr, align 8
  %11 = alloca ptr, align 8
  %12 = alloca ptr, align 8
  %13 = alloca i32, align 4
  %14 = alloca i32, align 4
  %15 = alloca ptr, align 8
  %16 = alloca ptr, align 8
  %17 = alloca i32, align 4
  %18 = alloca i32, align 4
  store ptr %0, ptr %8, align 8, !tbaa !3
  store ptr %1, ptr %9, align 8, !tbaa !54
  store ptr %2, ptr %10, align 8, !tbaa !44
  store ptr %3, ptr %11, align 8, !tbaa !8
  store ptr %4, ptr %12, align 8, !tbaa !8
  store i32 %5, ptr %13, align 4, !tbaa !10
  call void @llvm.lifetime.start.p0(i64 4, ptr %14) #4
  call void @llvm.lifetime.start.p0(i64 8, ptr %15) #4
  call void @llvm.lifetime.start.p0(i64 8, ptr %16) #4
  call void @llvm.lifetime.start.p0(i64 4, ptr %17) #4
  %19 = load ptr, ptr %8, align 8, !tbaa !3
  %20 = call ptr @CMS_get0_type(ptr noundef %19)
  %21 = call i32 @OBJ_obj2nid(ptr noundef %20)
  store i32 %21, ptr %17, align 4, !tbaa !10
  %22 = load i32, ptr %17, align 4, !tbaa !10
  %23 = icmp ne i32 %22, 23
  br i1 %23, label %24, label %28

24:                                               ; preds = %6
  %25 = load i32, ptr %17, align 4, !tbaa !10
  %26 = icmp ne i32 %25, 1059
  br i1 %26, label %27, label %28

27:                                               ; preds = %24
  call void @ERR_new()
  call void @ERR_set_debug(ptr noundef @.str, i32 noundef 880, ptr noundef @__func__.CMS_decrypt)
  call void (i32, i32, ptr, ...) @ERR_set_error(i32 noundef 46, i32 noundef 146, ptr noundef null)
  store i32 0, ptr %7, align 4
  store i32 1, ptr %18, align 4
  br label %87

28:                                               ; preds = %24, %6
  %29 = load ptr, ptr %11, align 8, !tbaa !8
  %30 = icmp eq ptr %29, null
  br i1 %30, label %31, label %36

31:                                               ; preds = %28
  %32 = load ptr, ptr %8, align 8, !tbaa !3
  %33 = call i32 @check_content(ptr noundef %32)
  %34 = icmp ne i32 %33, 0
  br i1 %34, label %36, label %35

35:                                               ; preds = %31
  store i32 0, ptr %7, align 4
  store i32 1, ptr %18, align 4
  br label %87

36:                                               ; preds = %31, %28
  %37 = load ptr, ptr %8, align 8, !tbaa !3
  %38 = call ptr @ossl_cms_get0_env_enc_content(ptr noundef %37)
  store ptr %38, ptr %16, align 8, !tbaa !70
  %39 = load i32, ptr %13, align 4, !tbaa !10
  %40 = and i32 %39, 131072
  %41 = icmp ne i32 %40, 0
  %42 = zext i1 %41 to i32
  %43 = load ptr, ptr %16, align 8, !tbaa !70
  %44 = getelementptr inbounds nuw %struct.CMS_EncryptedContentInfo_st, ptr %43, i32 0, i32 8
  store i32 %42, ptr %44, align 8, !tbaa !75
  %45 = load ptr, ptr %10, align 8, !tbaa !44
  %46 = icmp eq ptr %45, null
  %47 = zext i1 %46 to i32
  %48 = load ptr, ptr %16, align 8, !tbaa !70
  %49 = getelementptr inbounds nuw %struct.CMS_EncryptedContentInfo_st, ptr %48, i32 0, i32 9
  store i32 %47, ptr %49, align 4, !tbaa !86
  %50 = load ptr, ptr %9, align 8, !tbaa !54
  %51 = icmp eq ptr %50, null
  br i1 %51, label %52, label %62

52:                                               ; preds = %36
  %53 = load ptr, ptr %10, align 8, !tbaa !44
  %54 = icmp eq ptr %53, null
  br i1 %54, label %55, label %62

55:                                               ; preds = %52
  %56 = load ptr, ptr %11, align 8, !tbaa !8
  %57 = icmp eq ptr %56, null
  br i1 %57, label %58, label %62

58:                                               ; preds = %55
  %59 = load ptr, ptr %12, align 8, !tbaa !8
  %60 = icmp eq ptr %59, null
  br i1 %60, label %61, label %62

61:                                               ; preds = %58
  store i32 1, ptr %7, align 4
  store i32 1, ptr %18, align 4
  br label %87

62:                                               ; preds = %58, %55, %52, %36
  %63 = load ptr, ptr %9, align 8, !tbaa !54
  %64 = icmp ne ptr %63, null
  br i1 %64, label %65, label %72

65:                                               ; preds = %62
  %66 = load ptr, ptr %8, align 8, !tbaa !3
  %67 = load ptr, ptr %9, align 8, !tbaa !54
  %68 = load ptr, ptr %10, align 8, !tbaa !44
  %69 = call i32 @CMS_decrypt_set1_pkey(ptr noundef %66, ptr noundef %67, ptr noundef %68)
  %70 = icmp ne i32 %69, 0
  br i1 %70, label %72, label %71

71:                                               ; preds = %65
  store i32 0, ptr %7, align 4
  store i32 1, ptr %18, align 4
  br label %87

72:                                               ; preds = %65, %62
  %73 = load ptr, ptr %8, align 8, !tbaa !3
  %74 = load ptr, ptr %11, align 8, !tbaa !8
  %75 = call ptr @CMS_dataInit(ptr noundef %73, ptr noundef %74)
  store ptr %75, ptr %15, align 8, !tbaa !8
  %76 = load ptr, ptr %15, align 8, !tbaa !8
  %77 = icmp eq ptr %76, null
  br i1 %77, label %78, label %79

78:                                               ; preds = %72
  store i32 0, ptr %7, align 4
  store i32 1, ptr %18, align 4
  br label %87

79:                                               ; preds = %72
  %80 = load ptr, ptr %12, align 8, !tbaa !8
  %81 = load ptr, ptr %15, align 8, !tbaa !8
  %82 = load i32, ptr %13, align 4, !tbaa !10
  %83 = call i32 @cms_copy_content(ptr noundef %80, ptr noundef %81, i32 noundef %82)
  store i32 %83, ptr %14, align 4, !tbaa !10
  %84 = load ptr, ptr %15, align 8, !tbaa !8
  %85 = load ptr, ptr %11, align 8, !tbaa !8
  call void @do_free_upto(ptr noundef %84, ptr noundef %85)
  %86 = load i32, ptr %14, align 4, !tbaa !10
  store i32 %86, ptr %7, align 4
  store i32 1, ptr %18, align 4
  br label %87

87:                                               ; preds = %79, %78, %71, %61, %35, %27
  call void @llvm.lifetime.end.p0(i64 4, ptr %17) #4
  call void @llvm.lifetime.end.p0(i64 8, ptr %16) #4
  call void @llvm.lifetime.end.p0(i64 8, ptr %15) #4
  call void @llvm.lifetime.end.p0(i64 4, ptr %14) #4
  %88 = load i32, ptr %7, align 4
  ret i32 %88
}