; Function Attrs: nounwind uwtable
define range(i32 0, 2) i32 @CMS_decrypt(ptr noundef %0, ptr noundef %1, ptr noundef %2, ptr noundef %3, ptr noundef %4, i32 noundef %5) local_unnamed_addr #0 {
  %7 = tail call ptr @CMS_get0_type(ptr noundef %0) #4
  %8 = tail call i32 @OBJ_obj2nid(ptr noundef %7) #4
  switch i32 %8, label %9 [
    i32 1059, label %10
    i32 23, label %10
  ]

9:                                                ; preds = %6
  tail call void @ERR_new() #4
  tail call void @ERR_set_debug(ptr noundef nonnull @.str, i32 noundef 880, ptr noundef nonnull @__func__.CMS_decrypt) #4
  tail call void (i32, i32, ptr, ...) @ERR_set_error(i32 noundef 46, i32 noundef 146, ptr noundef null) #4
  br label %do_free_upto.exit

10:                                               ; preds = %6, %6
  %11 = icmp eq ptr %3, null
  br i1 %11, label %12, label %check_content.exit

12:                                               ; preds = %10
  %13 = tail call ptr @CMS_get0_content(ptr noundef %0) #4
  %14 = icmp eq ptr %13, null
  br i1 %14, label %check_content.exit.thread, label %15

15:                                               ; preds = %12
  %16 = load ptr, ptr %13, align 8, !tbaa !5
  %17 = icmp eq ptr %16, null
  br i1 %17, label %check_content.exit.thread, label %check_content.exit

check_content.exit.thread:                        ; preds = %12, %15
  tail call void @ERR_new() #4
  tail call void @ERR_set_debug(ptr noundef nonnull @.str, i32 noundef 84, ptr noundef nonnull @__func__.check_content) #4
  tail call void (i32, i32, ptr, ...) @ERR_set_error(i32 noundef 46, i32 noundef 127, ptr noundef null) #4
  br label %do_free_upto.exit

check_content.exit:                               ; preds = %15, %10
  %18 = tail call ptr @ossl_cms_get0_env_enc_content(ptr noundef %0) #4
  %19 = lshr i32 %5, 17
  %.lobit = and i32 %19, 1
  %20 = getelementptr inbounds nuw i8, ptr %18, i64 64
  store i32 %.lobit, ptr %20, align 8, !tbaa !44
  %21 = icmp eq ptr %2, null
  %22 = zext i1 %21 to i32
  %23 = getelementptr inbounds nuw i8, ptr %18, i64 68
  store i32 %22, ptr %23, align 4, !tbaa !49
  %24 = icmp eq ptr %1, null
  %25 = icmp eq ptr %4, null
  %26 = and i1 %24, %25
  %27 = and i1 %21, %26
  %or.cond7 = and i1 %11, %27
  br i1 %or.cond7, label %do_free_upto.exit, label %28

28:                                               ; preds = %check_content.exit
  br i1 %24, label %31, label %29

29:                                               ; preds = %28
  %30 = tail call range(i32 0, 2) i32 @CMS_decrypt_set1_pkey_and_peer(ptr noundef %0, ptr noundef nonnull %1, ptr noundef %2, ptr noundef null)
  %.not37 = icmp eq i32 %30, 0
  br i1 %.not37, label %do_free_upto.exit, label %31

31:                                               ; preds = %29, %28
  %32 = tail call ptr @CMS_dataInit(ptr noundef %0, ptr noundef %3) #4
  %33 = icmp eq ptr %32, null
  br i1 %33, label %do_free_upto.exit, label %34

34:                                               ; preds = %31
  %35 = tail call fastcc i32 @cms_copy_content(ptr noundef %4, ptr noundef %32, i32 noundef %5)
  br i1 %11, label %41, label %.preheader.i

.preheader.i:                                     ; preds = %34, %.preheader.i
  %.0.i38 = phi ptr [ %36, %.preheader.i ], [ %32, %34 ]
  %36 = tail call ptr @BIO_pop(ptr noundef nonnull %.0.i38) #4
  %37 = tail call i32 @BIO_free(ptr noundef nonnull %.0.i38) #4
  %38 = icmp ne ptr %36, null
  %39 = icmp ne ptr %36, %3
  %40 = and i1 %38, %39
  br i1 %40, label %.preheader.i, label %do_free_upto.exit, !llvm.loop !3

41:                                               ; preds = %34
  tail call void @BIO_free_all(ptr noundef nonnull %32) #4
  br label %do_free_upto.exit

do_free_upto.exit:                                ; preds = %.preheader.i, %41, %check_content.exit.thread, %31, %29, %check_content.exit, %9
  %.0 = phi i32 [ 0, %9 ], [ 1, %check_content.exit ], [ 0, %29 ], [ 0, %31 ], [ 0, %check_content.exit.thread ], [ %35, %41 ], [ %35, %.preheader.i ]
  ret i32 %.0
}